target datalayout = "e-m:e-p270:32:32-p271:32:32-p272:64:64-i64:64-i128:128-f80:128-n8:16:32:64-S128"
target triple = "x86_64-pc-linux-gnu"

%class.cmInstallRuntimeDependencySet = type { %"class.std::__cxx11::basic_string", %"class.std::vector", %"class.std::vector", %"class.std::vector", ptr, %"class.std::map" }
%"class.std::__cxx11::basic_string" = type { %"struct.std::__cxx11::basic_string<char>::_Alloc_hider", i64, %union.anon }
%"struct.std::__cxx11::basic_string<char>::_Alloc_hider" = type { ptr }
%union.anon = type { i64, [8 x i8] }
%"class.std::vector" = type { %"struct.std::_Vector_base" }
%"struct.std::_Vector_base" = type { %"struct.std::_Vector_base<std::unique_ptr<cmInstallRuntimeDependencySet::Item>, std::allocator<std::unique_ptr<cmInstallRuntimeDependencySet::Item>>>::_Vector_impl" }
%"struct.std::_Vector_base<std::unique_ptr<cmInstallRuntimeDependencySet::Item>, std::allocator<std::unique_ptr<cmInstallRuntimeDependencySet::Item>>>::_Vector_impl" = type { %"struct.std::_Vector_base<std::unique_ptr<cmInstallRuntimeDependencySet::Item>, std::allocator<std::unique_ptr<cmInstallRuntimeDependencySet::Item>>>::_Vector_impl_data" }
%"struct.std::_Vector_base<std::unique_ptr<cmInstallRuntimeDependencySet::Item>, std::allocator<std::unique_ptr<cmInstallRuntimeDependencySet::Item>>>::_Vector_impl_data" = type { ptr, ptr, ptr }
%"class.std::map" = type { %"class.std::_Rb_tree" }
%"class.std::_Rb_tree" = type { %"struct.std::_Rb_tree<const cmGeneratorTarget *, std::pair<const cmGeneratorTarget *const, std::set<const cmGeneratorTarget *>>, std::_Select1st<std::pair<const cmGeneratorTarget *const, std::set<const cmGeneratorTarget *>>>, std::less<const cmGeneratorTarget *>>::_Rb_tree_impl" }
%"struct.std::_Rb_tree<const cmGeneratorTarget *, std::pair<const cmGeneratorTarget *const, std::set<const cmGeneratorTarget *>>, std::_Select1st<std::pair<const cmGeneratorTarget *const, std::set<const cmGeneratorTarget *>>>, std::less<const cmGeneratorTarget *>>::_Rb_tree_impl" = type { [8 x i8], %"struct.std::_Rb_tree_header" }
%"struct.std::_Rb_tree_header" = type { %"struct.std::_Rb_tree_node_base", i64 }
%"struct.std::_Rb_tree_node_base" = type { i32, ptr, ptr, ptr }
%"class.std::unique_ptr" = type { %"struct.std::__uniq_ptr_data" }
%"struct.std::__uniq_ptr_data" = type { %"class.std::__uniq_ptr_impl" }
%"class.std::__uniq_ptr_impl" = type { %"class.std::tuple" }
%"class.std::tuple" = type { %"struct.std::_Tuple_impl" }
%"struct.std::_Tuple_impl" = type { %"struct.std::_Head_base.7" }
%"struct.std::_Head_base.7" = type { ptr }
%"class.__gnu_cxx::__normal_iterator" = type { ptr }

; Function Attrs: mustprogress nounwind uwtable
define linkonce_odr dso_local noundef nonnull align 8 dereferenceable(8) ptr @_ZNSt10_Head_baseILm0EPN29cmInstallRuntimeDependencySet4ItemELb0EE7_M_headERS3_(ptr noundef nonnull align 8 dereferenceable(8) %0) #6 comdat align 2 {
  %2 = alloca ptr, align 8
  store ptr %0, ptr %2, align 8, !tbaa !147
  %3 = load ptr, ptr %2, align 8, !tbaa !147
  %4 = getelementptr inbounds nuw %"struct.std::_Head_base.7", ptr %3, i32 0, i32 0
  ret ptr %4
}

; Function Attrs: mustprogress nounwind uwtable
define linkonce_odr dso_local noundef nonnull align 8 dereferenceable(8) ptr @_ZNSt11_Tuple_implILm0EJPN29cmInstallRuntimeDependencySet4ItemESt14default_deleteIS1_EEE7_M_headERS5_(ptr noundef nonnull align 8 dereferenceable(8) %0) #6 comdat align 2 {
  %2 = alloca ptr, align 8
  store ptr %0, ptr %2, align 8, !tbaa !142
  %3 = load ptr, ptr %2, align 8, !tbaa !142
  %4 = call noundef nonnull align 8 dereferenceable(8) ptr @_ZNSt10_Head_baseILm0EPN29cmInstallRuntimeDependencySet4ItemELb0EE7_M_headERS3_(ptr noundef nonnull align 8 dereferenceable(8) %3) #3
  ret ptr %4
}

; Function Attrs: mustprogress nounwind uwtable
define linkonce_odr dso_local noundef nonnull align 8 dereferenceable(8) ptr @_ZSt12__get_helperILm0EPN29cmInstallRuntimeDependencySet4ItemEJSt14default_deleteIS1_EEERT0_RSt11_Tuple_implIXT_EJS5_DpT1_EE(ptr noundef nonnull align 8 dereferenceable(8) %0) #6 comdat {
  %2 = alloca ptr, align 8
  store ptr %0, ptr %2, align 8, !tbaa !142
  %3 = load ptr, ptr %2, align 8, !tbaa !142
  %4 = call noundef nonnull align 8 dereferenceable(8) ptr @_ZNSt11_Tuple_implILm0EJPN29cmInstallRuntimeDependencySet4ItemESt14default_deleteIS1_EEE7_M_headERS5_(ptr noundef nonnull align 8 dereferenceable(8) %3) #3
  ret ptr %4
}

; Function Attrs: mustprogress nounwind uwtable
define linkonce_odr dso_local void @_ZNSt11_Tuple_implILm1EJSt14default_deleteIN29cmInstallRuntimeDependencySet4ItemEEEEC2EOS4_(ptr noundef nonnull align 1 dereferenceable(1) %0, ptr noundef nonnull align 1 dereferenceable(1) %1) unnamed_addr #6 comdat align 2 {
  %3 = alloca ptr, align 8
  %4 = alloca ptr, align 8
  store ptr %0, ptr %3, align 8, !tbaa !145
  store ptr %1, ptr %4, align 8, !tbaa !145
  ret void
}

; Function Attrs: mustprogress nounwind uwtable
define linkonce_odr dso_local noundef nonnull align 8 dereferenceable(8) ptr @_ZSt3getILm0EJPN29cmInstallRuntimeDependencySet4ItemESt14default_deleteIS1_EEERNSt13tuple_elementIXT_ESt5tupleIJDpT0_EEE4typeERS9_(ptr noundef nonnull align 8 dereferenceable(8) %0) #6 comdat {
  %2 = alloca ptr, align 8
  store ptr %0, ptr %2, align 8, !tbaa !140
  %3 = load ptr, ptr %2, align 8, !tbaa !140
  %4 = call noundef nonnull align 8 dereferenceable(8) ptr @_ZSt12__get_helperILm0EPN29cmInstallRuntimeDependencySet4ItemEJSt14default_deleteIS1_EEERT0_RSt11_Tuple_implIXT_EJS5_DpT1_EE(ptr noundef nonnull align 8 dereferenceable(8) %3) #3
  ret ptr %4
}

; Function Attrs: mustprogress nounwind uwtable
define linkonce_odr dso_local void @_ZNSt11_Tuple_implILm0EJPN29cmInstallRuntimeDependencySet4ItemESt14default_deleteIS1_EEEC2EOS5_(ptr noundef nonnull align 8 dereferenceable(8) %0, ptr noundef nonnull align 8 dereferenceable(8) %1) unnamed_addr #6 comdat align 2 {
  %3 = alloca ptr, align 8
  %4 = alloca ptr, align 8
  store ptr %0, ptr %3, align 8, !tbaa !142
  store ptr %1, ptr %4, align 8, !tbaa !142
  %5 = load ptr, ptr %3, align 8
  %6 = load ptr, ptr %4, align 8, !tbaa !142
  call void @_ZNSt11_Tuple_implILm1EJSt14default_deleteIN29cmInstallRuntimeDependencySet4ItemEEEEC2EOS4_(ptr noundef nonnull align 1 dereferenceable(1) %5, ptr noundef nonnull align 1 dereferenceable(1) %6) #3
  %7 = load ptr, ptr %4, align 8, !tbaa !142
  call void @llvm.memcpy.p0.p0.i64(ptr align 8 %5, ptr align 8 %7, i64 8, i1 false), !tbaa.struct !144
  ret void
}

; Function Attrs: mustprogress nounwind uwtable
define linkonce_odr dso_local noundef nonnull align 8 dereferenceable(8) ptr @_ZNSt15__uniq_ptr_implIN29cmInstallRuntimeDependencySet4ItemESt14default_deleteIS1_EE6_M_ptrEv(ptr noundef nonnull align 8 dereferenceable(8) %0) #6 comdat align 2 {
  %2 = alloca ptr, align 8
  store ptr %0, ptr %2, align 8, !tbaa !138
  %3 = load ptr, ptr %2, align 8
  %4 = getelementptr inbounds nuw %"class.std::__uniq_ptr_impl", ptr %3, i32 0, i32 0
  %5 = call noundef nonnull align 8 dereferenceable(8) ptr @_ZSt3getILm0EJPN29cmInstallRuntimeDependencySet4ItemESt14default_deleteIS1_EEERNSt13tuple_elementIXT_ESt5tupleIJDpT0_EEE4typeERS9_(ptr noundef nonnull align 8 dereferenceable(8) %4) #3
  ret ptr %5
}

; Function Attrs: mustprogress nounwind uwtable
define linkonce_odr dso_local void @_ZNSt5tupleIJPN29cmInstallRuntimeDependencySet4ItemESt14default_deleteIS1_EEEC2EOS5_(ptr noundef nonnull align 8 dereferenceable(8) %0, ptr noundef nonnull align 8 dereferenceable(8) %1) unnamed_addr #6 comdat align 2 {
  %3 = alloca ptr, align 8
  %4 = alloca ptr, align 8
  store ptr %0, ptr %3, align 8, !tbaa !140
  store ptr %1, ptr %4, align 8, !tbaa !140
  %5 = load ptr, ptr %3, align 8
  %6 = load ptr, ptr %4, align 8, !tbaa !140
  call void @_ZNSt11_Tuple_implILm0EJPN29cmInstallRuntimeDependencySet4ItemESt14default_deleteIS1_EEEC2EOS5_(ptr noundef nonnull align 8 dereferenceable(8) %5, ptr noundef nonnull align 8 dereferenceable(8) %6) #3
  ret void
}

; Function Attrs: mustprogress nounwind uwtable
define linkonce_odr dso_local void @_ZNSt15__uniq_ptr_implIN29cmInstallRuntimeDependencySet4ItemESt14default_deleteIS1_EEC2EOS4_(ptr noundef nonnull align 8 dereferenceable(8) %0, ptr noundef nonnull align 8 dereferenceable(8) %1) unnamed_addr #6 comdat align 2 {
  %3 = alloca ptr, align 8
  %4 = alloca ptr, align 8
  store ptr %0, ptr %3, align 8, !tbaa !138
  store ptr %1, ptr %4, align 8, !tbaa !138
  %5 = load ptr, ptr %3, align 8
  %6 = getelementptr inbounds nuw %"class.std::__uniq_ptr_impl", ptr %5, i32 0, i32 0
  %7 = load ptr, ptr %4, align 8, !tbaa !138
  %8 = getelementptr inbounds nuw %"class.std::__uniq_ptr_impl", ptr %7, i32 0, i32 0
  call void @_ZNSt5tupleIJPN29cmInstallRuntimeDependencySet4ItemESt14default_deleteIS1_EEEC2EOS5_(ptr noundef nonnull align 8 dereferenceable(8) %6, ptr noundef nonnull align 8 dereferenceable(8) %8) #3
  %9 = load ptr, ptr %4, align 8, !tbaa !138
  %10 = call noundef nonnull align 8 dereferenceable(8) ptr @_ZNSt15__uniq_ptr_implIN29cmInstallRuntimeDependencySet4ItemESt14default_deleteIS1_EE6_M_ptrEv(ptr noundef nonnull align 8 dereferenceable(8) %9) #3
  store ptr null, ptr %10, align 8, !tbaa !50
  ret void
}

; Function Attrs: mustprogress nounwind uwtable
define linkonce_odr dso_local void @_ZNSt15__uniq_ptr_dataIN29cmInstallRuntimeDependencySet4ItemESt14default_deleteIS1_ELb1ELb1EEC2EOS4_(ptr noundef nonnull align 8 dereferenceable(8) %0, ptr noundef nonnull align 8 dereferenceable(8) %1) unnamed_addr #6 comdat align 2 {
  %3 = alloca ptr, align 8
  %4 = alloca ptr, align 8
  store ptr %0, ptr %3, align 8, !tbaa !136
  store ptr %1, ptr %4, align 8, !tbaa !136
  %5 = load ptr, ptr %3, align 8
  %6 = load ptr, ptr %4, align 8, !tbaa !136
  call void @_ZNSt15__uniq_ptr_implIN29cmInstallRuntimeDependencySet4ItemESt14default_deleteIS1_EEC2EOS4_(ptr noundef nonnull align 8 dereferenceable(8) %5, ptr noundef nonnull align 8 dereferenceable(8) %6) #3
  ret void
}

; Function Attrs: mustprogress nounwind uwtable
define linkonce_odr dso_local void @_ZNSt10unique_ptrIN29cmInstallRuntimeDependencySet4ItemESt14default_deleteIS1_EEC2EOS4_(ptr noundef nonnull align 8 dereferenceable(8) %0, ptr noundef nonnull align 8 dereferenceable(8) %1) unnamed_addr #6 comdat align 2 {
  %3 = alloca ptr, align 8
  %4 = alloca ptr, align 8
  store ptr %0, ptr %3, align 8, !tbaa !47
  store ptr %1, ptr %4, align 8, !tbaa !47
  %5 = load ptr, ptr %3, align 8
  %6 = getelementptr inbounds nuw %"class.std::unique_ptr", ptr %5, i32 0, i32 0
  %7 = load ptr, ptr %4, align 8, !tbaa !47
  %8 = getelementptr inbounds nuw %"class.std::unique_ptr", ptr %7, i32 0, i32 0
  call void @_ZNSt15__uniq_ptr_dataIN29cmInstallRuntimeDependencySet4ItemESt14default_deleteIS1_ELb1ELb1EEC2EOS4_(ptr noundef nonnull align 8 dereferenceable(8) %6, ptr noundef nonnull align 8 dereferenceable(8) %8) #3
  ret void
}

; Function Attrs: mustprogress nounwind uwtable
define linkonce_odr dso_local noundef nonnull align 8 dereferenceable(8) ptr @_ZNK9__gnu_cxx17__normal_iteratorIPSt10unique_ptrIN29cmInstallRuntimeDependencySet4ItemESt14default_deleteIS3_EESt6vectorIS6_SaIS6_EEEdeEv(ptr noundef nonnull align 8 dereferenceable(8) %0) #6 comdat align 2 {
  %2 = alloca ptr, align 8
  store ptr %0, ptr %2, align 8, !tbaa !275
  %3 = load ptr, ptr %2, align 8
  %4 = getelementptr inbounds nuw %"class.__gnu_cxx::__normal_iterator", ptr %3, i32 0, i32 0
  %5 = load ptr, ptr %4, align 8, !tbaa !281
  ret ptr %5
}

; Function Attrs: mustprogress nounwind uwtable
define linkonce_odr dso_local ptr @_ZNK9__gnu_cxx17__normal_iteratorIPSt10unique_ptrIN29cmInstallRuntimeDependencySet4ItemESt14default_deleteIS3_EESt6vectorIS6_SaIS6_EEEmiEl(ptr noundef nonnull align 8 dereferenceable(8) %0, i64 noundef %1) #6 comdat align 2 {
  %3 = alloca %"class.__gnu_cxx::__normal_iterator", align 8
  %4 = alloca ptr, align 8
  %5 = alloca i64, align 8
  %6 = alloca ptr, align 8
  store ptr %0, ptr %4, align 8, !tbaa !275
  store i64 %1, ptr %5, align 8, !tbaa !17
  %7 = load ptr, ptr %4, align 8
  call void @llvm.lifetime.start.p0(i64 8, ptr %6) #3
  %8 = getelementptr inbounds nuw %"class.__gnu_cxx::__normal_iterator", ptr %7, i32 0, i32 0
  %9 = load ptr, ptr %8, align 8, !tbaa !281
  %10 = load i64, ptr %5, align 8, !tbaa !17
  %11 = sub i64 0, %10
  %12 = getelementptr inbounds %"class.std::unique_ptr", ptr %9, i64 %11
  store ptr %12, ptr %6, align 8, !tbaa !47
  call void @_ZN9__gnu_cxx17__normal_iteratorIPSt10unique_ptrIN29cmInstallRuntimeDependencySet4ItemESt14default_deleteIS3_EESt6vectorIS6_SaIS6_EEEC2ERKS7_(ptr noundef nonnull align 8 dereferenceable(8) %3, ptr noundef nonnull align 8 dereferenceable(8) %6) #3
  call void @llvm.lifetime.end.p0(i64 8, ptr %6) #3
  %13 = getelementptr inbounds nuw %"class.__gnu_cxx::__normal_iterator", ptr %3, i32 0, i32 0
  %14 = load ptr, ptr %13, align 8
  ret ptr %14
}

; Function Attrs: mustprogress nounwind uwtable
define linkonce_odr dso_local void @_ZN9__gnu_cxx17__normal_iteratorIPSt10unique_ptrIN29cmInstallRuntimeDependencySet4ItemESt14default_deleteIS3_EESt6vectorIS6_SaIS6_EEEC2ERKS7_(ptr noundef nonnull align 8 dereferenceable(8) %0, ptr noundef nonnull align 8 dereferenceable(8) %1) unnamed_addr #6 comdat align 2 {
  %3 = alloca ptr, align 8
  %4 = alloca ptr, align 8
  store ptr %0, ptr %3, align 8, !tbaa !275
  store ptr %1, ptr %4, align 8, !tbaa !279
  %5 = load ptr, ptr %3, align 8
  %6 = getelementptr inbounds nuw %"class.__gnu_cxx::__normal_iterator", ptr %5, i32 0, i32 0
  %7 = load ptr, ptr %4, align 8, !tbaa !279
  %8 = load ptr, ptr %7, align 8, !tbaa !47
  store ptr %8, ptr %6, align 8, !tbaa !281
  ret void
}

; Function Attrs: mustprogress nounwind uwtable
define linkonce_odr dso_local void @_ZNSt15__new_allocatorISt10unique_ptrIN29cmInstallRuntimeDependencySet4ItemESt14default_deleteIS2_EEE9constructIS5_JS5_EEEvPT_DpOT0_(ptr noundef nonnull align 1 dereferenceable(1) %0, ptr noundef %1, ptr noundef nonnull align 8 dereferenceable(8) %2) #6 comdat align 2 {
  %4 = alloca ptr, align 8
  %5 = alloca ptr, align 8
  %6 = alloca ptr, align 8
  store ptr %0, ptr %4, align 8, !tbaa !117
  store ptr %1, ptr %5, align 8, !tbaa !47
  store ptr %2, ptr %6, align 8, !tbaa !47
  %7 = load ptr, ptr %5, align 8, !tbaa !47
  %8 = load ptr, ptr %6, align 8, !tbaa !47
  call void @_ZNSt10unique_ptrIN29cmInstallRuntimeDependencySet4ItemESt14default_deleteIS1_EEC2EOS4_(ptr noundef nonnull align 8 dereferenceable(8) %7, ptr noundef nonnull align 8 dereferenceable(8) %8) #3
  ret void
}

; Function Attrs: mustprogress nounwind uwtable
define linkonce_odr dso_local noundef nonnull align 8 dereferenceable(8) ptr @_ZNSt6vectorISt10unique_ptrIN29cmInstallRuntimeDependencySet4ItemESt14default_deleteIS2_EESaIS5_EE4backEv(ptr noundef nonnull align 8 dereferenceable(24) %0) #6 comdat align 2 {
  %2 = alloca ptr, align 8
  %3 = alloca %"class.__gnu_cxx::__normal_iterator", align 8
  %4 = alloca %"class.__gnu_cxx::__normal_iterator", align 8
  store ptr %0, ptr %2, align 8, !tbaa !43
  %5 = load ptr, ptr %2, align 8
  call void @llvm.lifetime.start.p0(i64 8, ptr %3) #3
  call void @llvm.lifetime.start.p0(i64 8, ptr %4) #3
  %6 = call ptr @_ZNSt6vectorISt10unique_ptrIN29cmInstallRuntimeDependencySet4ItemESt14default_deleteIS2_EESaIS5_EE3endEv(ptr noundef nonnull align 8 dereferenceable(24) %5) #3
  %7 = getelementptr inbounds nuw %"class.__gnu_cxx::__normal_iterator", ptr %4, i32 0, i32 0
  store ptr %6, ptr %7, align 8
  %8 = call ptr @_ZNK9__gnu_cxx17__normal_iteratorIPSt10unique_ptrIN29cmInstallRuntimeDependencySet4ItemESt14default_deleteIS3_EESt6vectorIS6_SaIS6_EEEmiEl(ptr noundef nonnull align 8 dereferenceable(8) %4, i64 noundef 1) #3
  %9 = getelementptr inbounds nuw %"class.__gnu_cxx::__normal_iterator", ptr %3, i32 0, i32 0
  store ptr %8, ptr %9, align 8
  %10 = call noundef nonnull align 8 dereferenceable(8) ptr @_ZNK9__gnu_cxx17__normal_iteratorIPSt10unique_ptrIN29cmInstallRuntimeDependencySet4ItemESt14default_deleteIS3_EESt6vectorIS6_SaIS6_EEEdeEv(ptr noundef nonnull align 8 dereferenceable(8) %3) #3
  call void @llvm.lifetime.end.p0(i64 8, ptr %4) #3
  call void @llvm.lifetime.end.p0(i64 8, ptr %3) #3
  ret ptr %10
}

; Function Attrs: mustprogress nounwind uwtable
define linkonce_odr dso_local ptr @_ZNSt6vectorISt10unique_ptrIN29cmInstallRuntimeDependencySet4ItemESt14default_deleteIS2_EESaIS5_EE3endEv(ptr noundef nonnull align 8 dereferenceable(24) %0) #6 comdat align 2 {
  %2 = alloca %"class.__gnu_cxx::__normal_iterator", align 8
  %3 = alloca ptr, align 8
  store ptr %0, ptr %3, align 8, !tbaa !43
  %4 = load ptr, ptr %3, align 8
  %5 = getelementptr inbounds nuw %"struct.std::_Vector_base", ptr %4, i32 0, i32 0
  %6 = getelementptr inbounds nuw %"struct.std::_Vector_base<std::unique_ptr<cmInstallRuntimeDependencySet::Item>, std::allocator<std::unique_ptr<cmInstallRuntimeDependencySet::Item>>>::_Vector_impl_data", ptr %5, i32 0, i32 1
  call void @_ZN9__gnu_cxx17__normal_iteratorIPSt10unique_ptrIN29cmInstallRuntimeDependencySet4ItemESt14default_deleteIS3_EESt6vectorIS6_SaIS6_EEEC2ERKS7_(ptr noundef nonnull align 8 dereferenceable(8) %2, ptr noundef nonnull align 8 dereferenceable(8) %6) #3
  %7 = getelementptr inbounds nuw %"class.__gnu_cxx::__normal_iterator", ptr %2, i32 0, i32 0
  %8 = load ptr, ptr %7, align 8
  ret ptr %8
}

; Function Attrs: mustprogress nounwind uwtable
define linkonce_odr dso_local void @_ZNSt16allocator_traitsISaISt10unique_ptrIN29cmInstallRuntimeDependencySet4ItemESt14default_deleteIS2_EEEE9constructIS5_JS5_EEEvRS6_PT_DpOT0_(ptr noundef nonnull align 1 dereferenceable(1) %0, ptr noundef %1, ptr noundef nonnull align 8 dereferenceable(8) %2) #6 comdat align 2 {
  %4 = alloca ptr, align 8
  %5 = alloca ptr, align 8
  %6 = alloca ptr, align 8
  store ptr %0, ptr %4, align 8, !tbaa !110
  store ptr %1, ptr %5, align 8, !tbaa !47
  store ptr %2, ptr %6, align 8, !tbaa !47
  %7 = load ptr, ptr %4, align 8, !tbaa !110
  %8 = load ptr, ptr %5, align 8, !tbaa !47
  %9 = load ptr, ptr %6, align 8, !tbaa !47
  call void @_ZNSt15__new_allocatorISt10unique_ptrIN29cmInstallRuntimeDependencySet4ItemESt14default_deleteIS2_EEE9constructIS5_JS5_EEEvPT_DpOT0_(ptr noundef nonnull align 1 dereferenceable(1) %7, ptr noundef %8, ptr noundef nonnull align 8 dereferenceable(8) %9) #3
  ret void
}

; Function Attrs: mustprogress uwtable
define linkonce_odr dso_local noundef nonnull align 8 dereferenceable(8) ptr @_ZNSt6vectorISt10unique_ptrIN29cmInstallRuntimeDependencySet4ItemESt14default_deleteIS2_EESaIS5_EE12emplace_backIJS5_EEERS5_DpOT_(ptr noundef nonnull align 8 dereferenceable(24) %0, ptr noundef nonnull align 8 dereferenceable(8) %1) #5 comdat align 2 {
  %3 = alloca ptr, align 8
  %4 = alloca ptr, align 8
  %5 = alloca %"class.__gnu_cxx::__normal_iterator", align 8
  store ptr %0, ptr %3, align 8, !tbaa !43
  store ptr %1, ptr %4, align 8, !tbaa !47
  %6 = load ptr, ptr %3, align 8
  %7 = getelementptr inbounds nuw %"struct.std::_Vector_base", ptr %6, i32 0, i32 0
  %8 = getelementptr inbounds nuw %"struct.std::_Vector_base<std::unique_ptr<cmInstallRuntimeDependencySet::Item>, std::allocator<std::unique_ptr<cmInstallRuntimeDependencySet::Item>>>::_Vector_impl_data", ptr %7, i32 0, i32 1
  %9 = load ptr, ptr %8, align 8, !tbaa !115
  %10 = getelementptr inbounds nuw %"struct.std::_Vector_base", ptr %6, i32 0, i32 0
  %11 = getelementptr inbounds nuw %"struct.std::_Vector_base<std::unique_ptr<cmInstallRuntimeDependencySet::Item>, std::allocator<std::unique_ptr<cmInstallRuntimeDependencySet::Item>>>::_Vector_impl_data", ptr %10, i32 0, i32 2
  %12 = load ptr, ptr %11, align 8, !tbaa !116
  %13 = icmp ne ptr %9, %12
  br i1 %13, label %14, label %24

14:                                               ; preds = %2
  %15 = getelementptr inbounds nuw %"struct.std::_Vector_base", ptr %6, i32 0, i32 0
  %16 = getelementptr inbounds nuw %"struct.std::_Vector_base", ptr %6, i32 0, i32 0
  %17 = getelementptr inbounds nuw %"struct.std::_Vector_base<std::unique_ptr<cmInstallRuntimeDependencySet::Item>, std::allocator<std::unique_ptr<cmInstallRuntimeDependencySet::Item>>>::_Vector_impl_data", ptr %16, i32 0, i32 1
  %18 = load ptr, ptr %17, align 8, !tbaa !115
  %19 = load ptr, ptr %4, align 8, !tbaa !47
  call void @_ZNSt16allocator_traitsISaISt10unique_ptrIN29cmInstallRuntimeDependencySet4ItemESt14default_deleteIS2_EEEE9constructIS5_JS5_EEEvRS6_PT_DpOT0_(ptr noundef nonnull align 1 dereferenceable(1) %15, ptr noundef %18, ptr noundef nonnull align 8 dereferenceable(8) %19) #3
  %20 = getelementptr inbounds nuw %"struct.std::_Vector_base", ptr %6, i32 0, i32 0
  %21 = getelementptr inbounds nuw %"struct.std::_Vector_base<std::unique_ptr<cmInstallRuntimeDependencySet::Item>, std::allocator<std::unique_ptr<cmInstallRuntimeDependencySet::Item>>>::_Vector_impl_data", ptr %20, i32 0, i32 1
  %22 = load ptr, ptr %21, align 8, !tbaa !115
  %23 = getelementptr inbounds nuw %"class.std::unique_ptr", ptr %22, i32 1
  store ptr %23, ptr %21, align 8, !tbaa !115
  br label %30

24:                                               ; preds = %2
  %25 = call ptr @_ZNSt6vectorISt10unique_ptrIN29cmInstallRuntimeDependencySet4ItemESt14default_deleteIS2_EESaIS5_EE3endEv(ptr noundef nonnull align 8 dereferenceable(24) %6) #3
  %26 = getelementptr inbounds nuw %"class.__gnu_cxx::__normal_iterator", ptr %5, i32 0, i32 0
  store ptr %25, ptr %26, align 8
  %27 = load ptr, ptr %4, align 8, !tbaa !47
  %28 = getelementptr inbounds nuw %"class.__gnu_cxx::__normal_iterator", ptr %5, i32 0, i32 0
  %29 = load ptr, ptr %28, align 8
  call void @_ZNSt6vectorISt10unique_ptrIN29cmInstallRuntimeDependencySet4ItemESt14default_deleteIS2_EESaIS5_EE17_M_realloc_insertIJS5_EEEvN9__gnu_cxx17__normal_iteratorIPS5_S7_EEDpOT_(ptr noundef nonnull align 8 dereferenceable(24) %6, ptr %29, ptr noundef nonnull align 8 dereferenceable(8) %27)
  br label %30

30:                                               ; preds = %24, %14
  %31 = call noundef nonnull align 8 dereferenceable(8) ptr @_ZNSt6vectorISt10unique_ptrIN29cmInstallRuntimeDependencySet4ItemESt14default_deleteIS2_EESaIS5_EE4backEv(ptr noundef nonnull align 8 dereferenceable(24) %6) #3
  ret ptr %31
}

; Function Attrs: mustprogress uwtable
define linkonce_odr dso_local void @_ZNSt6vectorISt10unique_ptrIN29cmInstallRuntimeDependencySet4ItemESt14default_deleteIS2_EESaIS5_EE9push_backEOS5_(ptr noundef nonnull align 8 dereferenceable(24) %0, ptr noundef nonnull align 8 dereferenceable(8) %1) #5 comdat align 2 {
  %3 = alloca ptr, align 8
  %4 = alloca ptr, align 8
  store ptr %0, ptr %3, align 8, !tbaa !43
  store ptr %1, ptr %4, align 8, !tbaa !47
  %5 = load ptr, ptr %3, align 8
  %6 = load ptr, ptr %4, align 8, !tbaa !47
  %7 = call noundef nonnull align 8 dereferenceable(8) ptr @_ZNSt6vectorISt10unique_ptrIN29cmInstallRuntimeDependencySet4ItemESt14default_deleteIS2_EESaIS5_EE12emplace_backIJS5_EEERS5_DpOT_(ptr noundef nonnull align 8 dereferenceable(24) %5, ptr noundef nonnull align 8 dereferenceable(8) %6)
  ret void
}

; Function Attrs: mustprogress uwtable
define dso_local void @_ZN29cmInstallRuntimeDependencySet13AddExecutableESt10unique_ptrINS_4ItemESt14default_deleteIS1_EE(ptr noundef nonnull align 8 dereferenceable(160) %0, ptr noundef %1) #5 align 2 {
  %3 = alloca ptr, align 8
  %4 = alloca ptr, align 8
  store ptr %0, ptr %3, align 8, !tbaa !18
  store ptr %1, ptr %4, align 8, !tbaa !47
  %5 = load ptr, ptr %3, align 8
  %6 = getelementptr inbounds nuw %class.cmInstallRuntimeDependencySet, ptr %5, i32 0, i32 1
  call void @_ZNSt6vectorISt10unique_ptrIN29cmInstallRuntimeDependencySet4ItemESt14default_deleteIS2_EESaIS5_EE9push_backEOS5_(ptr noundef nonnull align 8 dereferenceable(24) %6, ptr noundef nonnull align 8 dereferenceable(8) %1)
  ret void
}